; Function Attrs: mustprogress uwtable
define noundef i32 @_ZN4pkpy17TokenDeserializer10read_countEv(ptr noundef nonnull align 8 captures(none) dereferenceable(16) %0) local_unnamed_addr #5 align 2 personality ptr @__gxx_personality_v0 {
  %2 = alloca %"class.std::__cxx11::basic_string", align 8
  %3 = alloca %"class.std::__cxx11::basic_string", align 8
  %4 = alloca %"class.std::__cxx11::basic_string", align 8
  %5 = alloca %"class.std::__cxx11::basic_string", align 8
  %6 = alloca %"class.std::allocator.91", align 1
  %7 = alloca %"class.std::__cxx11::basic_string", align 8
  %8 = load ptr, ptr %0, align 8
  %9 = load i8, ptr %8, align 1
  %10 = icmp eq i8 %9, 61
  br i1 %10, label %33, label %11

11:                                               ; preds = %1
  %12 = tail call ptr @__cxa_allocate_exception(i64 16) #36
  call void @_ZNSaIcEC1Ev(ptr noundef nonnull align 1 dereferenceable(1) %6) #36
  invoke void @_ZNSt7__cxx1112basic_stringIcSt11char_traitsIcESaIcEEC2IS3_EEPKcRKS3_(ptr noundef nonnull align 8 dereferenceable(32) %5, ptr noundef nonnull @.str.10, ptr noundef nonnull align 1 dereferenceable(1) %6)
          to label %13 unwind label %.thread

13:                                               ; preds = %11
  %14 = invoke noundef nonnull align 8 dereferenceable(32) ptr @_ZNSt7__cxx1112basic_stringIcSt11char_traitsIcESaIcEE6insertEmPKc(ptr noundef nonnull align 8 dereferenceable(32) %5, i64 noundef 0, ptr noundef nonnull @.str.9)
          to label %15 unwind label %21

15:                                               ; preds = %13
  call void @_ZNSt7__cxx1112basic_stringIcSt11char_traitsIcESaIcEEC1EOS4_(ptr noundef nonnull align 8 dereferenceable(32) %4, ptr noundef nonnull align 8 dereferenceable(32) %14) #36
  call void @_ZNSt7__cxx119to_stringEi(ptr dead_on_unwind nonnull writable sret(%"class.std::__cxx11::basic_string") align 8 %7, i32 noundef 1409) #36
  invoke void @_ZStplIcSt11char_traitsIcESaIcEENSt7__cxx1112basic_stringIT_T0_T1_EEOS8_S9_(ptr dead_on_unwind nonnull writable sret(%"class.std::__cxx11::basic_string") align 8 %3, ptr noundef nonnull align 8 dereferenceable(32) %4, ptr noundef nonnull align 8 dereferenceable(32) %7)
          to label %16 unwind label %23

16:                                               ; preds = %15
  %17 = invoke noundef nonnull align 8 dereferenceable(32) ptr @_ZNSt7__cxx1112basic_stringIcSt11char_traitsIcESaIcEE6appendEPKc(ptr noundef nonnull align 8 dereferenceable(32) %3, ptr noundef nonnull @.str.11)
          to label %18 unwind label %25

18:                                               ; preds = %16
  call void @_ZNSt7__cxx1112basic_stringIcSt11char_traitsIcESaIcEEC1EOS4_(ptr noundef nonnull align 8 dereferenceable(32) %2, ptr noundef nonnull align 8 dereferenceable(32) %17) #36
  invoke void @_ZNSt13runtime_errorC1ERKNSt7__cxx1112basic_stringIcSt11char_traitsIcESaIcEEE(ptr noundef nonnull align 8 dereferenceable(16) %12, ptr noundef nonnull align 8 dereferenceable(32) %2)
          to label %19 unwind label %27

19:                                               ; preds = %18
  invoke void @__cxa_throw(ptr nonnull %12, ptr nonnull @_ZTISt13runtime_error, ptr nonnull @_ZNSt13runtime_errorD1Ev) #35
          to label %47 unwind label %27

.thread:                                          ; preds = %11
  %20 = landingpad { ptr, i32 }
          cleanup
  call void @_ZNSaIcED1Ev(ptr noundef nonnull align 1 dereferenceable(1) %6) #36
  br label %32

21:                                               ; preds = %13
  %22 = landingpad { ptr, i32 }
          cleanup
  br label %31

23:                                               ; preds = %15
  %24 = landingpad { ptr, i32 }
          cleanup
  br label %30

25:                                               ; preds = %16
  %26 = landingpad { ptr, i32 }
          cleanup
  br label %29

27:                                               ; preds = %19, %18
  %.0 = phi i1 [ false, %19 ], [ true, %18 ]
  %28 = landingpad { ptr, i32 }
          cleanup
  call void @_ZNSt7__cxx1112basic_stringIcSt11char_traitsIcESaIcEED1Ev(ptr noundef nonnull align 8 dereferenceable(32) %2) #36
  br label %29

29:                                               ; preds = %27, %25
  %.pn = phi { ptr, i32 } [ %28, %27 ], [ %26, %25 ]
  %.4 = phi i1 [ %.0, %27 ], [ true, %25 ]
  call void @_ZNSt7__cxx1112basic_stringIcSt11char_traitsIcESaIcEED1Ev(ptr noundef nonnull align 8 dereferenceable(32) %3) #36
  br label %30

30:                                               ; preds = %29, %23
  %.pn.pn = phi { ptr, i32 } [ %.pn, %29 ], [ %24, %23 ]
  %.3 = phi i1 [ %.4, %29 ], [ true, %23 ]
  call void @_ZNSt7__cxx1112basic_stringIcSt11char_traitsIcESaIcEED1Ev(ptr noundef nonnull align 8 dereferenceable(32) %7) #36
  call void @_ZNSt7__cxx1112basic_stringIcSt11char_traitsIcESaIcEED1Ev(ptr noundef nonnull align 8 dereferenceable(32) %4) #36
  br label %31

31:                                               ; preds = %21, %30
  %.pn.pn.pn = phi { ptr, i32 } [ %.pn.pn, %30 ], [ %22, %21 ]
  %.2 = phi i1 [ %.3, %30 ], [ true, %21 ]
  call void @_ZNSt7__cxx1112basic_stringIcSt11char_traitsIcESaIcEED1Ev(ptr noundef nonnull align 8 dereferenceable(32) %5) #36
  call void @_ZNSaIcED1Ev(ptr noundef nonnull align 1 dereferenceable(1) %6) #36
  br i1 %.2, label %32, label %46

32:                                               ; preds = %.thread, %31
  %.pn.pn.pn.pn18 = phi { ptr, i32 } [ %20, %.thread ], [ %.pn.pn.pn, %31 ]
  call void @__cxa_free_exception(ptr %12) #36
  br label %46

33:                                               ; preds = %1
  %34 = getelementptr inbounds nuw i8, ptr %8, i64 1
  store ptr %34, ptr %0, align 8
  %35 = load i8, ptr %34, align 1
  %.not4.i = icmp eq i8 %35, 10
  br i1 %.not4.i, label %_ZN4pkpy17TokenDeserializer9read_uintEc.exit, label %.lr.ph.i

.lr.ph.i:                                         ; preds = %33, %.lr.ph.i
  %36 = phi i8 [ %43, %.lr.ph.i ], [ %35, %33 ]
  %.05.i = phi i32 [ %41, %.lr.ph.i ], [ 0, %33 ]
  %37 = phi ptr [ %42, %.lr.ph.i ], [ %34, %33 ]
  %38 = sext i8 %36 to i32
  %39 = mul i32 %.05.i, 10
  %40 = add nsw i32 %38, -48
  %41 = add i32 %40, %39
  %42 = getelementptr inbounds nuw i8, ptr %37, i64 1
  store ptr %42, ptr %0, align 8
  %43 = load i8, ptr %42, align 1
  %.not.i = icmp eq i8 %43, 10
  br i1 %.not.i, label %_ZN4pkpy17TokenDeserializer9read_uintEc.exit, label %.lr.ph.i, !llvm.loop !334

_ZN4pkpy17TokenDeserializer9read_uintEc.exit:     ; preds = %.lr.ph.i, %33
  %.0.lcssa.i = phi i32 [ 0, %33 ], [ %41, %.lr.ph.i ]
  %44 = phi ptr [ %8, %33 ], [ %37, %.lr.ph.i ]
  %45 = getelementptr inbounds nuw i8, ptr %44, i64 2
  store ptr %45, ptr %0, align 8
  ret i32 %.0.lcssa.i

46:                                               ; preds = %31, %32
  %.pn.pn.pn.pn17 = phi { ptr, i32 } [ %.pn.pn.pn, %31 ], [ %.pn.pn.pn.pn18, %32 ]
  resume { ptr, i32 } %.pn.pn.pn.pn17

47:                                               ; preds = %19
  unreachable
}